; Function Attrs: mustprogress nofree norecurse nosync nounwind willreturn memory(argmem: readwrite) uwtable
define internal void @_ZN4llvm2cl3optIN12_GLOBAL__N_15LevelELb0ENS0_6parserIS3_EEE10setDefaultEv(ptr noundef nonnull align 8 captures(none) dereferenceable(600) initializes((128, 132)) %0) unnamed_addr #12 align 2 {
  %2 = getelementptr inbounds nuw i8, ptr %0, i64 148
  %.val.i = load i8, ptr %2, align 4
  %3 = trunc i8 %.val.i to i1
  %4 = getelementptr inbounds nuw i8, ptr %0, i64 144
  %5 = load i32, ptr %4, align 8
  %storemerge.i = select i1 %3, i32 %5, i32 0
  %6 = getelementptr inbounds nuw i8, ptr %0, i64 128
  store i32 %storemerge.i, ptr %6, align 8
  ret void
}